; Function Attrs: nounwind uwtable
define internal void @__cxx_global_array_dtor(ptr readnone captures(none) %0) #4 section ".text.startup" personality ptr @__gxx_personality_v0 {
  %2 = load ptr, ptr getelementptr inbounds nuw (i8, ptr @_ZN12_GLOBAL__N_111LookupTableE, i64 128), align 16
  %3 = load ptr, ptr getelementptr inbounds nuw (i8, ptr @_ZN12_GLOBAL__N_111LookupTableE, i64 136), align 8
  %.not4.i.i.i.i.i = icmp eq ptr %2, %3
  br i1 %.not4.i.i.i.i.i, label %_ZSt8_DestroyIPNSt7__cxx1112basic_stringIcSt11char_traitsIcESaIcEEES5_EvT_S7_RSaIT0_E.exit.i.i, label %.lr.ph.i.i.i.i.i

.lr.ph.i.i.i.i.i:                                 ; preds = %1, %.lr.ph.i.i.i.i.i
  %.05.i.i.i.i.i = phi ptr [ %4, %.lr.ph.i.i.i.i.i ], [ %2, %1 ]
  tail call void @_ZNSt7__cxx1112basic_stringIcSt11char_traitsIcESaIcEED1Ev(ptr noundef nonnull align 8 dereferenceable(32) %.05.i.i.i.i.i) #13
  %4 = getelementptr inbounds nuw i8, ptr %.05.i.i.i.i.i, i64 32
  %.not.i.i.i.i.i = icmp eq ptr %4, %3
  br i1 %.not.i.i.i.i.i, label %_ZSt8_DestroyIPNSt7__cxx1112basic_stringIcSt11char_traitsIcESaIcEEES5_EvT_S7_RSaIT0_E.exitthread-pre-split.i.i, label %.lr.ph.i.i.i.i.i, !llvm.loop !5

_ZSt8_DestroyIPNSt7__cxx1112basic_stringIcSt11char_traitsIcESaIcEEES5_EvT_S7_RSaIT0_E.exitthread-pre-split.i.i: ; preds = %.lr.ph.i.i.i.i.i
  %.pr.i.i = load ptr, ptr getelementptr inbounds nuw (i8, ptr @_ZN12_GLOBAL__N_111LookupTableE, i64 128), align 16
  br label %_ZSt8_DestroyIPNSt7__cxx1112basic_stringIcSt11char_traitsIcESaIcEEES5_EvT_S7_RSaIT0_E.exit.i.i

_ZSt8_DestroyIPNSt7__cxx1112basic_stringIcSt11char_traitsIcESaIcEEES5_EvT_S7_RSaIT0_E.exit.i.i: ; preds = %_ZSt8_DestroyIPNSt7__cxx1112basic_stringIcSt11char_traitsIcESaIcEEES5_EvT_S7_RSaIT0_E.exitthread-pre-split.i.i, %1
  %5 = phi ptr [ %.pr.i.i, %_ZSt8_DestroyIPNSt7__cxx1112basic_stringIcSt11char_traitsIcESaIcEEES5_EvT_S7_RSaIT0_E.exitthread-pre-split.i.i ], [ %2, %1 ]
  %.not.i.i.i.i = icmp eq ptr %5, null
  br i1 %.not.i.i.i.i, label %_ZN14cmExperimental11FeatureDataD2Ev.exit, label %6

6:                                                ; preds = %_ZSt8_DestroyIPNSt7__cxx1112basic_stringIcSt11char_traitsIcESaIcEEES5_EvT_S7_RSaIT0_E.exit.i.i
  tail call void @_ZdlPv(ptr noundef nonnull %5) #14
  br label %_ZN14cmExperimental11FeatureDataD2Ev.exit

_ZN14cmExperimental11FeatureDataD2Ev.exit:        ; preds = %_ZSt8_DestroyIPNSt7__cxx1112basic_stringIcSt11char_traitsIcESaIcEEES5_EvT_S7_RSaIT0_E.exit.i.i, %6
  tail call void @_ZNSt7__cxx1112basic_stringIcSt11char_traitsIcESaIcEED1Ev(ptr noundef nonnull align 8 dereferenceable(32) getelementptr inbounds nuw (i8, ptr @_ZN12_GLOBAL__N_111LookupTableE, i64 96)) #13
  tail call void @_ZNSt7__cxx1112basic_stringIcSt11char_traitsIcESaIcEED1Ev(ptr noundef nonnull align 8 dereferenceable(32) getelementptr inbounds nuw (i8, ptr @_ZN12_GLOBAL__N_111LookupTableE, i64 64)) #13
  tail call void @_ZNSt7__cxx1112basic_stringIcSt11char_traitsIcESaIcEED1Ev(ptr noundef nonnull align 8 dereferenceable(32) getelementptr inbounds nuw (i8, ptr @_ZN12_GLOBAL__N_111LookupTableE, i64 32)) #13
  tail call void @_ZNSt7__cxx1112basic_stringIcSt11char_traitsIcESaIcEED1Ev(ptr noundef nonnull align 8 dereferenceable(32) @_ZN12_GLOBAL__N_111LookupTableE) #13
  ret void
}